; Function Attrs: mustprogress uwtable
define hidden void @_ZN19OpenColorIO_v2_5dev9CDLParser4Impl22StartElementHandlerCCCEPvPKcPS4_(ptr noundef %0, ptr noundef %1, ptr noundef %2) #4 align 2 personality ptr @__gxx_personality_v0 {
  %4 = alloca %"class.std::shared_ptr.4", align 8
  %5 = tail call noundef zeroext i1 @_ZN19OpenColorIO_v2_5dev9CDLParser4Impl19IsValidStartElementEPS1_PKc(ptr noundef %0, ptr noundef %1)
  %6 = tail call noundef zeroext i1 @_ZN19OpenColorIO_v2_5dev9CDLParser4Impl43HandleColorCorrectionCollectionStartElementEPS1_PKc(ptr noundef %0, ptr noundef %1)
  br i1 %6, label %17, label %7

7:                                                ; preds = %3
  %8 = tail call noundef zeroext i1 @_ZN19OpenColorIO_v2_5dev9CDLParser4Impl36HandleColorCorrectionCCCStartElementEPS1_PKc(ptr noundef %0, ptr noundef %1)
  br i1 %8, label %17, label %9

9:                                                ; preds = %7
  %10 = tail call noundef zeroext i1 @_ZN19OpenColorIO_v2_5dev9CDLParser4Impl25HandleSOPNodeStartElementEPS1_PKc(ptr noundef %0, ptr noundef %1)
  br i1 %10, label %17, label %11

11:                                               ; preds = %9
  %12 = tail call noundef zeroext i1 @_ZN19OpenColorIO_v2_5dev9CDLParser4Impl25HandleSatNodeStartElementEPS1_PKc(ptr noundef %0, ptr noundef %1)
  br i1 %12, label %17, label %13

13:                                               ; preds = %11
  %14 = tail call noundef zeroext i1 @_ZN19OpenColorIO_v2_5dev9CDLParser4Impl26HandleTerminalStartElementEPS1_PKc(ptr noundef %0, ptr noundef %1)
  br i1 %14, label %17, label %15

15:                                               ; preds = %13
  %16 = tail call noundef zeroext i1 @_ZN19OpenColorIO_v2_5dev9CDLParser4Impl25HandleUnknownStartElementEPS1_PKc(ptr noundef %0, ptr noundef %1)
  br label %17

17:                                               ; preds = %15, %13, %11, %9, %7, %3
  call void @llvm.lifetime.start.p0(i64 16, ptr nonnull %4) #30
  %18 = getelementptr inbounds nuw i8, ptr %0, i64 8
  call void @_ZNK19OpenColorIO_v2_5dev21XmlReaderElementStack4backEv(ptr dead_on_unwind nonnull writable sret(%"class.std::shared_ptr.4") align 8 %4, ptr noundef nonnull align 8 dereferenceable(32) %18)
  %19 = load ptr, ptr %4, align 8, !tbaa !82
  %20 = load ptr, ptr %19, align 8, !tbaa !40
  %21 = getelementptr inbounds nuw i8, ptr %20, i64 16
  %22 = load ptr, ptr %21, align 8
  invoke void %22(ptr noundef nonnull align 8 dereferenceable(80) %19, ptr noundef %2)
          to label %23 unwind label %47

23:                                               ; preds = %17
  %24 = getelementptr inbounds nuw i8, ptr %4, i64 8
  %25 = load ptr, ptr %24, align 8, !tbaa !36
  %.not.i.i = icmp eq ptr %25, null
  br i1 %.not.i.i, label %_ZNSt12__shared_ptrIN19OpenColorIO_v2_5dev16XmlReaderElementELN9__gnu_cxx12_Lock_policyE2EED2Ev.exit, label %26

26:                                               ; preds = %23
  %27 = getelementptr inbounds nuw i8, ptr %25, i64 8
  %28 = load atomic i64, ptr %27 acquire, align 8
  %29 = icmp eq i64 %28, 4294967297
  %30 = trunc i64 %28 to i32
  br i1 %29, label %31, label %39

31:                                               ; preds = %26
  store i32 0, ptr %27, align 8, !tbaa !37
  %32 = getelementptr inbounds nuw i8, ptr %25, i64 12
  store i32 0, ptr %32, align 4, !tbaa !39
  %33 = load ptr, ptr %25, align 8, !tbaa !40
  %34 = getelementptr inbounds nuw i8, ptr %33, i64 16
  %35 = load ptr, ptr %34, align 8
  call void %35(ptr noundef nonnull align 8 dereferenceable(16) %25) #30
  %36 = load ptr, ptr %25, align 8, !tbaa !40
  %37 = getelementptr inbounds nuw i8, ptr %36, i64 24
  %38 = load ptr, ptr %37, align 8
  call void %38(ptr noundef nonnull align 8 dereferenceable(16) %25) #30
  br label %_ZNSt12__shared_ptrIN19OpenColorIO_v2_5dev16XmlReaderElementELN9__gnu_cxx12_Lock_policyE2EED2Ev.exit

39:                                               ; preds = %26
  %40 = load i8, ptr @__libc_single_threaded, align 1, !tbaa !33
  %.not.i.i.i = icmp eq i8 %40, 0
  br i1 %.not.i.i.i, label %43, label %41

41:                                               ; preds = %39
  %42 = add nsw i32 %30, -1
  store i32 %42, ptr %27, align 4, !tbaa !42
  br label %_ZN9__gnu_cxx27__exchange_and_add_dispatchEPii.exit.i.i.i

43:                                               ; preds = %39
  %44 = atomicrmw volatile add ptr %27, i32 -1 acq_rel, align 4
  br label %_ZN9__gnu_cxx27__exchange_and_add_dispatchEPii.exit.i.i.i

_ZN9__gnu_cxx27__exchange_and_add_dispatchEPii.exit.i.i.i: ; preds = %43, %41
  %.0.i.i.i.i = phi i32 [ %30, %41 ], [ %44, %43 ]
  %45 = icmp eq i32 %.0.i.i.i.i, 1
  br i1 %45, label %46, label %_ZNSt12__shared_ptrIN19OpenColorIO_v2_5dev16XmlReaderElementELN9__gnu_cxx12_Lock_policyE2EED2Ev.exit, !prof !43

46:                                               ; preds = %_ZN9__gnu_cxx27__exchange_and_add_dispatchEPii.exit.i.i.i
  call void @_ZNSt16_Sp_counted_baseILN9__gnu_cxx12_Lock_policyE2EE24_M_release_last_use_coldEv(ptr noundef nonnull align 8 dereferenceable(16) %25) #30
  br label %_ZNSt12__shared_ptrIN19OpenColorIO_v2_5dev16XmlReaderElementELN9__gnu_cxx12_Lock_policyE2EED2Ev.exit

_ZNSt12__shared_ptrIN19OpenColorIO_v2_5dev16XmlReaderElementELN9__gnu_cxx12_Lock_policyE2EED2Ev.exit: ; preds = %23, %31, %_ZN9__gnu_cxx27__exchange_and_add_dispatchEPii.exit.i.i.i, %46
  call void @llvm.lifetime.end.p0(i64 16, ptr nonnull %4) #30
  ret void

47:                                               ; preds = %17
  %48 = landingpad { ptr, i32 }
          cleanup
  call void @_ZNSt12__shared_ptrIN19OpenColorIO_v2_5dev16XmlReaderElementELN9__gnu_cxx12_Lock_policyE2EED2Ev(ptr noundef nonnull align 8 dereferenceable(16) %4) #30
  call void @llvm.lifetime.end.p0(i64 16, ptr nonnull %4) #30
  resume { ptr, i32 } %48
}